target datalayout = "e-m:e-p270:32:32-p271:32:32-p272:64:64-i64:64-i128:128-f80:128-n8:16:32:64-S128"
target triple = "x86_64-pc-linux-gnu"

%struct.ScanKeyData = type { i32, i16, i16, i32, i32, %struct.FmgrInfo, i64 }
%struct.FmgrInfo = type { ptr, i32, i16, i8, i8, i8, ptr, ptr, ptr }

; Function Attrs: inlinehint nounwind uwtable
define internal i64 @PointerGetDatum(ptr noundef %0) #3 {
  %2 = alloca ptr, align 8
  store ptr %0, ptr %2, align 8
  %3 = load ptr, ptr %2, align 8
  %4 = ptrtoint ptr %3 to i64
  ret i64 %4
}

; Function Attrs: inlinehint nounwind uwtable
define internal i64 @CStringGetDatum(ptr noundef %0) #3 {
  %2 = alloca ptr, align 8
  store ptr %0, ptr %2, align 8
  %3 = load ptr, ptr %2, align 8
  %4 = call i64 @PointerGetDatum(ptr noundef %3)
  ret i64 %4
}

; Function Attrs: inlinehint nounwind uwtable
define internal i64 @ObjectIdGetDatum(i32 noundef %0) #3 {
  %2 = alloca i32, align 4
  store i32 %0, ptr %2, align 4
  %3 = load i32, ptr %2, align 4
  %4 = zext i32 %3 to i64
  ret i64 %4
}

; Function Attrs: nounwind uwtable
define dso_local zeroext i1 @ConstraintNameIsUsed(i32 noundef %0, i32 noundef %1, ptr noundef %2) #0 {
  %4 = alloca i32, align 4
  %5 = alloca i32, align 4
  %6 = alloca ptr, align 8
  %7 = alloca i8, align 1
  %8 = alloca ptr, align 8
  %9 = alloca ptr, align 8
  %10 = alloca [3 x %struct.ScanKeyData], align 16
  store i32 %0, ptr %4, align 4
  store i32 %1, ptr %5, align 4
  store ptr %2, ptr %6, align 8
  call void @llvm.lifetime.start.p0(i64 1, ptr %7) #9
  call void @llvm.lifetime.start.p0(i64 8, ptr %8) #9
  call void @llvm.lifetime.start.p0(i64 8, ptr %9) #9
  call void @llvm.lifetime.start.p0(i64 216, ptr %10) #9
  %11 = call ptr @table_open(i32 noundef 2606, i32 noundef 1)
  store ptr %11, ptr %8, align 8
  %12 = getelementptr inbounds [3 x %struct.ScanKeyData], ptr %10, i64 0, i64 0
  %13 = load i32, ptr %4, align 4
  %14 = icmp eq i32 %13, 0
  br i1 %14, label %15, label %17

15:                                               ; preds = %3
  %16 = load i32, ptr %5, align 4
  br label %18

17:                                               ; preds = %3
  br label %18

18:                                               ; preds = %17, %15
  %19 = phi i32 [ %16, %15 ], [ 0, %17 ]
  %20 = call i64 @ObjectIdGetDatum(i32 noundef %19)
  call void @ScanKeyInit(ptr noundef %12, i16 noundef signext 9, i16 noundef zeroext 3, i32 noundef 184, i64 noundef %20)
  %21 = getelementptr inbounds [3 x %struct.ScanKeyData], ptr %10, i64 0, i64 1
  %22 = load i32, ptr %4, align 4
  %23 = icmp eq i32 %22, 1
  br i1 %23, label %24, label %26

24:                                               ; preds = %18
  %25 = load i32, ptr %5, align 4
  br label %27

26:                                               ; preds = %18
  br label %27

27:                                               ; preds = %26, %24
  %28 = phi i32 [ %25, %24 ], [ 0, %26 ]
  %29 = call i64 @ObjectIdGetDatum(i32 noundef %28)
  call void @ScanKeyInit(ptr noundef %21, i16 noundef signext 10, i16 noundef zeroext 3, i32 noundef 184, i64 noundef %29)
  %30 = getelementptr inbounds [3 x %struct.ScanKeyData], ptr %10, i64 0, i64 2
  %31 = load ptr, ptr %6, align 8
  %32 = call i64 @CStringGetDatum(ptr noundef %31)
  call void @ScanKeyInit(ptr noundef %30, i16 noundef signext 2, i16 noundef zeroext 3, i32 noundef 62, i64 noundef %32)
  %33 = load ptr, ptr %8, align 8
  %34 = getelementptr inbounds [3 x %struct.ScanKeyData], ptr %10, i64 0, i64 0
  %35 = call ptr @systable_beginscan(ptr noundef %33, i32 noundef 2665, i1 noundef zeroext true, ptr noundef null, i32 noundef 3, ptr noundef %34)
  store ptr %35, ptr %9, align 8
  %36 = load ptr, ptr %9, align 8
  %37 = call ptr @systable_getnext(ptr noundef %36)
  %38 = icmp ne ptr %37, null
  %39 = zext i1 %38 to i8
  store i8 %39, ptr %7, align 1
  %40 = load ptr, ptr %9, align 8
  call void @systable_endscan(ptr noundef %40)
  %41 = load ptr, ptr %8, align 8
  call void @table_close(ptr noundef %41, i32 noundef 1)
  %42 = load i8, ptr %7, align 1, !range !13, !noundef !14
  %43 = trunc i8 %42 to i1
  call void @llvm.lifetime.end.p0(i64 216, ptr %10) #9
  call void @llvm.lifetime.end.p0(i64 8, ptr %9) #9
  call void @llvm.lifetime.end.p0(i64 8, ptr %8) #9
  call void @llvm.lifetime.end.p0(i64 1, ptr %7) #9
  ret i1 %43
}