; Function Attrs: nounwind uwtable
define dso_local zeroext i1 @ConstraintNameIsUsed(i32 noundef %0, i32 noundef %1, ptr noundef %2) local_unnamed_addr #0 {
  %4 = alloca [3 x %struct.ScanKeyData], align 16
  call void @llvm.lifetime.start.p0(i64 216, ptr nonnull %4) #12
  %5 = tail call ptr @table_open(i32 noundef 2606, i32 noundef 1) #12
  %6 = icmp eq i32 %0, 0
  %7 = select i1 %6, i32 %1, i32 0
  %8 = zext i32 %7 to i64
  call void @ScanKeyInit(ptr noundef nonnull %4, i16 noundef signext 9, i16 noundef zeroext 3, i32 noundef 184, i64 noundef %8) #12
  %9 = getelementptr inbounds nuw i8, ptr %4, i64 72
  %10 = icmp eq i32 %0, 1
  %11 = select i1 %10, i32 %1, i32 0
  %12 = zext i32 %11 to i64
  call void @ScanKeyInit(ptr noundef nonnull %9, i16 noundef signext 10, i16 noundef zeroext 3, i32 noundef 184, i64 noundef %12) #12
  %13 = getelementptr inbounds nuw i8, ptr %4, i64 144
  %14 = ptrtoint ptr %2 to i64
  call void @ScanKeyInit(ptr noundef nonnull %13, i16 noundef signext 2, i16 noundef zeroext 3, i32 noundef 62, i64 noundef %14) #12
  %15 = call ptr @systable_beginscan(ptr noundef %5, i32 noundef 2665, i1 noundef zeroext true, ptr noundef null, i32 noundef 3, ptr noundef nonnull %4) #12
  %16 = call ptr @systable_getnext(ptr noundef %15) #12
  %17 = icmp ne ptr %16, null
  call void @systable_endscan(ptr noundef %15) #12
  call void @table_close(ptr noundef %5, i32 noundef 1) #12
  call void @llvm.lifetime.end.p0(i64 216, ptr nonnull %4) #12
  ret i1 %17
}